; ModuleID = '32/2384.c'
source_filename = "32/2384.c"
target datalayout = "e-m:e-p270:32:32-p271:32:32-p272:64:64-i64:64-f80:128-n8:16:32:64-S128"
target triple = "x86_64-pc-linux-gnu"

@.str = private unnamed_addr constant [4 x i8] c"%d\0A\00", align 1
@.str.1 = private unnamed_addr constant [3 x i8] c"%d\00", align 1
@.str.2 = private unnamed_addr constant [2 x i8] c"\0A\00", align 1

; Function Attrs: noinline nounwind uwtable
define dso_local i32 @main() #0 {
  %1 = alloca i32, align 4
  %2 = alloca [100 x i8], align 16
  %3 = alloca [100 x i8], align 16
  %4 = alloca [30 x [100 x i8]], align 16
  %5 = alloca i32, align 4
  %6 = alloca i32, align 4
  %7 = alloca i32, align 4
  %8 = alloca i32, align 4
  %9 = alloca i32, align 4
  store i32 0, i32* %1, align 4
  %10 = call i32 (i8*, ...) @__isoc99_scanf(i8* getelementptr inbounds ([4 x i8], [4 x i8]* @.str, i64 0, i64 0), i32* %5)
  store i32 0, i32* %6, align 4
  br label %11

11:                                               ; preds = %141, %0
  %12 = load i32, i32* %6, align 4
  %13 = load i32, i32* %5, align 4
  %14 = icmp slt i32 %12, %13
  br i1 %14, label %15, label %144

15:                                               ; preds = %11
  %16 = getelementptr inbounds [100 x i8], [100 x i8]* %2, i64 0, i64 0
  %17 = call i32 (i8*, ...) bitcast (i32 (...)* @gets to i32 (i8*, ...)*)(i8* %16)
  %18 = getelementptr inbounds [100 x i8], [100 x i8]* %3, i64 0, i64 0
  %19 = call i32 (i8*, ...) bitcast (i32 (...)* @gets to i32 (i8*, ...)*)(i8* %18)
  %20 = load i32, i32* %6, align 4
  %21 = load i32, i32* %5, align 4
  %22 = sub nsw i32 %21, 1
  %23 = icmp ne i32 %20, %22
  br i1 %23, label %24, label %26

24:                                               ; preds = %15
  %25 = call i32 @getchar()
  br label %26

26:                                               ; preds = %24, %15
  %27 = getelementptr inbounds [100 x i8], [100 x i8]* %2, i64 0, i64 0
  %28 = call i64 @strlen(i8* %27) #3
  %29 = trunc i64 %28 to i32
  store i32 %29, i32* %8, align 4
  %30 = getelementptr inbounds [100 x i8], [100 x i8]* %3, i64 0, i64 0
  %31 = call i64 @strlen(i8* %30) #3
  %32 = trunc i64 %31 to i32
  store i32 %32, i32* %9, align 4
  %33 = load i32, i32* %9, align 4
  %34 = sub nsw i32 %33, 1
  store i32 %34, i32* %7, align 4
  br label %35

35:                                               ; preds = %50, %26
  %36 = load i32, i32* %7, align 4
  %37 = icmp sge i32 %36, 0
  br i1 %37, label %38, label %53

38:                                               ; preds = %35
  %39 = load i32, i32* %7, align 4
  %40 = sext i32 %39 to i64
  %41 = getelementptr inbounds [100 x i8], [100 x i8]* %3, i64 0, i64 %40
  %42 = load i8, i8* %41, align 1
  %43 = load i32, i32* %7, align 4
  %44 = load i32, i32* %8, align 4
  %45 = add nsw i32 %43, %44
  %46 = load i32, i32* %9, align 4
  %47 = sub nsw i32 %45, %46
  %48 = sext i32 %47 to i64
  %49 = getelementptr inbounds [100 x i8], [100 x i8]* %3, i64 0, i64 %48
  store i8 %42, i8* %49, align 1
  br label %50

50:                                               ; preds = %38
  %51 = load i32, i32* %7, align 4
  %52 = add nsw i32 %51, -1
  store i32 %52, i32* %7, align 4
  br label %35

53:                                               ; preds = %35
  store i32 0, i32* %7, align 4
  br label %54

54:                                               ; preds = %64, %53
  %55 = load i32, i32* %7, align 4
  %56 = load i32, i32* %8, align 4
  %57 = load i32, i32* %9, align 4
  %58 = sub nsw i32 %56, %57
  %59 = icmp slt i32 %55, %58
  br i1 %59, label %60, label %67

60:                                               ; preds = %54
  %61 = load i32, i32* %7, align 4
  %62 = sext i32 %61 to i64
  %63 = getelementptr inbounds [100 x i8], [100 x i8]* %3, i64 0, i64 %62
  store i8 48, i8* %63, align 1
  br label %64

64:                                               ; preds = %60
  %65 = load i32, i32* %7, align 4
  %66 = add nsw i32 %65, 1
  store i32 %66, i32* %7, align 4
  br label %54

67:                                               ; preds = %54
  %68 = load i32, i32* %8, align 4
  %69 = sub nsw i32 %68, 1
  store i32 %69, i32* %7, align 4
  br label %70

70:                                               ; preds = %131, %67
  %71 = load i32, i32* %7, align 4
  %72 = icmp sge i32 %71, 0
  br i1 %72, label %73, label %134

73:                                               ; preds = %70
  %74 = load i32, i32* %7, align 4
  %75 = sext i32 %74 to i64
  %76 = getelementptr inbounds [100 x i8], [100 x i8]* %2, i64 0, i64 %75
  %77 = load i8, i8* %76, align 1
  %78 = sext i8 %77 to i32
  %79 = load i32, i32* %7, align 4
  %80 = sext i32 %79 to i64
  %81 = getelementptr inbounds [100 x i8], [100 x i8]* %3, i64 0, i64 %80
  %82 = load i8, i8* %81, align 1
  %83 = sext i8 %82 to i32
  %84 = icmp slt i32 %78, %83
  br i1 %84, label %85, label %111

85:                                               ; preds = %73
  %86 = load i32, i32* %7, align 4
  %87 = sext i32 %86 to i64
  %88 = getelementptr inbounds [100 x i8], [100 x i8]* %2, i64 0, i64 %87
  %89 = load i8, i8* %88, align 1
  %90 = sext i8 %89 to i32
  %91 = add nsw i32 %90, 10
  %92 = load i32, i32* %7, align 4
  %93 = sext i32 %92 to i64
  %94 = getelementptr inbounds [100 x i8], [100 x i8]* %3, i64 0, i64 %93
  %95 = load i8, i8* %94, align 1
  %96 = sext i8 %95 to i32
  %97 = sub nsw i32 %91, %96
  %98 = trunc i32 %97 to i8
  %99 = load i32, i32* %6, align 4
  %100 = sext i32 %99 to i64
  %101 = getelementptr inbounds [30 x [100 x i8]], [30 x [100 x i8]]* %4, i64 0, i64 %100
  %102 = load i32, i32* %7, align 4
  %103 = sext i32 %102 to i64
  %104 = getelementptr inbounds [100 x i8], [100 x i8]* %101, i64 0, i64 %103
  store i8 %98, i8* %104, align 1
  %105 = load i32, i32* %7, align 4
  %106 = sub nsw i32 %105, 1
  %107 = sext i32 %106 to i64
  %108 = getelementptr inbounds [100 x i8], [100 x i8]* %2, i64 0, i64 %107
  %109 = load i8, i8* %108, align 1
  %110 = add i8 %109, -1
  store i8 %110, i8* %108, align 1
  br label %130

111:                                              ; preds = %73
  %112 = load i32, i32* %7, align 4
  %113 = sext i32 %112 to i64
  %114 = getelementptr inbounds [100 x i8], [100 x i8]* %2, i64 0, i64 %113
  %115 = load i8, i8* %114, align 1
  %116 = sext i8 %115 to i32
  %117 = load i32, i32* %7, align 4
  %118 = sext i32 %117 to i64
  %119 = getelementptr inbounds [100 x i8], [100 x i8]* %3, i64 0, i64 %118
  %120 = load i8, i8* %119, align 1
  %121 = sext i8 %120 to i32
  %122 = sub nsw i32 %116, %121
  %123 = trunc i32 %122 to i8
  %124 = load i32, i32* %6, align 4
  %125 = sext i32 %124 to i64
  %126 = getelementptr inbounds [30 x [100 x i8]], [30 x [100 x i8]]* %4, i64 0, i64 %125
  %127 = load i32, i32* %7, align 4
  %128 = sext i32 %127 to i64
  %129 = getelementptr inbounds [100 x i8], [100 x i8]* %126, i64 0, i64 %128
  store i8 %123, i8* %129, align 1
  br label %130

130:                                              ; preds = %111, %85
  br label %131

131:                                              ; preds = %130
  %132 = load i32, i32* %7, align 4
  %133 = add nsw i32 %132, -1
  store i32 %133, i32* %7, align 4
  br label %70

134:                                              ; preds = %70
  %135 = load i32, i32* %6, align 4
  %136 = sext i32 %135 to i64
  %137 = getelementptr inbounds [30 x [100 x i8]], [30 x [100 x i8]]* %4, i64 0, i64 %136
  %138 = load i32, i32* %8, align 4
  %139 = sext i32 %138 to i64
  %140 = getelementptr inbounds [100 x i8], [100 x i8]* %137, i64 0, i64 %139
  store i8 10, i8* %140, align 1
  br label %141

141:                                              ; preds = %134
  %142 = load i32, i32* %6, align 4
  %143 = add nsw i32 %142, 1
  store i32 %143, i32* %6, align 4
  br label %11

144:                                              ; preds = %11
  store i32 0, i32* %6, align 4
  br label %145

145:                                              ; preds = %175, %144
  %146 = load i32, i32* %6, align 4
  %147 = load i32, i32* %5, align 4
  %148 = icmp slt i32 %146, %147
  br i1 %148, label %149, label %178

149:                                              ; preds = %145
  store i32 0, i32* %7, align 4
  br label %150

150:                                              ; preds = %170, %149
  %151 = load i32, i32* %6, align 4
  %152 = sext i32 %151 to i64
  %153 = getelementptr inbounds [30 x [100 x i8]], [30 x [100 x i8]]* %4, i64 0, i64 %152
  %154 = load i32, i32* %7, align 4
  %155 = sext i32 %154 to i64
  %156 = getelementptr inbounds [100 x i8], [100 x i8]* %153, i64 0, i64 %155
  %157 = load i8, i8* %156, align 1
  %158 = sext i8 %157 to i32
  %159 = icmp slt i32 %158, 10
  br i1 %159, label %160, label %173

160:                                              ; preds = %150
  %161 = load i32, i32* %6, align 4
  %162 = sext i32 %161 to i64
  %163 = getelementptr inbounds [30 x [100 x i8]], [30 x [100 x i8]]* %4, i64 0, i64 %162
  %164 = load i32, i32* %7, align 4
  %165 = sext i32 %164 to i64
  %166 = getelementptr inbounds [100 x i8], [100 x i8]* %163, i64 0, i64 %165
  %167 = load i8, i8* %166, align 1
  %168 = sext i8 %167 to i32
  %169 = call i32 (i8*, ...) @printf(i8* getelementptr inbounds ([3 x i8], [3 x i8]* @.str.1, i64 0, i64 0), i32 %168)
  br label %170

170:                                              ; preds = %160
  %171 = load i32, i32* %7, align 4
  %172 = add nsw i32 %171, 1
  store i32 %172, i32* %7, align 4
  br label %150

173:                                              ; preds = %150
  %174 = call i32 (i8*, ...) @printf(i8* getelementptr inbounds ([2 x i8], [2 x i8]* @.str.2, i64 0, i64 0))
  br label %175

175:                                              ; preds = %173
  %176 = load i32, i32* %6, align 4
  %177 = add nsw i32 %176, 1
  store i32 %177, i32* %6, align 4
  br label %145

178:                                              ; preds = %145
  %179 = load i32, i32* %1, align 4
  ret i32 %179
}

declare dso_local i32 @__isoc99_scanf(i8*, ...) #1

declare dso_local i32 @gets(...) #1

declare dso_local i32 @getchar() #1

; Function Attrs: nounwind readonly
declare dso_local i64 @strlen(i8*) #2

declare dso_local i32 @printf(i8*, ...) #1


!llvm.module.flags = !{!0}
!llvm.ident = !{!1}

!0 = !{i32 1, !"wchar_size", i32 4}
!1 = !{!"clang version 10.0.0-4ubuntu1 "}
